target datalayout = "e-m:e-p270:32:32-p271:32:32-p272:64:64-i64:64-i128:128-f80:128-n8:16:32:64-S128"
target triple = "x86_64-pc-linux-gnu"

%struct.b2World = type { %struct.b2ArenaAllocator, %struct.b2BroadPhase, %struct.b2ConstraintGraph, %struct.b2IdPool, %struct.b2BodyArray, %struct.b2IdPool, %struct.b2SolverSetArray, %struct.b2IdPool, %struct.b2JointArray, %struct.b2IdPool, %struct.b2ContactArray, %struct.b2IdPool, %struct.b2IslandArray, %struct.b2IdPool, %struct.b2IdPool, %struct.b2ShapeArray, %struct.b2ChainShapeArray, %struct.b2SensorArray, %struct.b2TaskContextArray, %struct.b2SensorTaskContextArray, %struct.b2BodyMoveEventArray, %struct.b2SensorBeginTouchEventArray, %struct.b2ContactBeginTouchEventArray, [2 x %struct.b2SensorEndTouchEventArray], [2 x %struct.b2ContactEndTouchEventArray], i32, %struct.b2ContactHitEventArray, %struct.b2BitSet, %struct.b2BitSet, %struct.b2BitSet, i64, i32, %struct.b2Vec2, float, float, float, float, float, float, float, float, ptr, ptr, i16, %struct.b2Profile, ptr, ptr, ptr, ptr, i32, ptr, ptr, ptr, ptr, ptr, float, i32, i32, i16, i8, i8, i8, i8, i8, i8 }
%struct.b2ArenaAllocator = type { ptr, i32, i32, i32, i32, %struct.b2ArenaEntryArray }
%struct.b2ArenaEntryArray = type { ptr, i32, i32 }
%struct.b2BroadPhase = type { [3 x %struct.b2DynamicTree], i32, %struct.b2HashSet, %struct.b2IntArray, ptr, ptr, i32, %struct.b2AtomicInt, %struct.b2HashSet }
%struct.b2DynamicTree = type { ptr, i32, i32, i32, i32, i32, ptr, ptr, ptr, ptr, i32 }
%struct.b2IntArray = type { ptr, i32, i32 }
%struct.b2AtomicInt = type { i32 }
%struct.b2HashSet = type { ptr, i32, i32 }
%struct.b2ConstraintGraph = type { [12 x %struct.b2GraphColor] }
%struct.b2GraphColor = type { %struct.b2BitSet, %struct.b2ContactSimArray, %struct.b2JointSimArray, %union.anon }
%struct.b2ContactSimArray = type { ptr, i32, i32 }
%struct.b2JointSimArray = type { ptr, i32, i32 }
%union.anon = type { ptr }
%struct.b2BodyArray = type { ptr, i32, i32 }
%struct.b2SolverSetArray = type { ptr, i32, i32 }
%struct.b2JointArray = type { ptr, i32, i32 }
%struct.b2ContactArray = type { ptr, i32, i32 }
%struct.b2IslandArray = type { ptr, i32, i32 }
%struct.b2IdPool = type { %struct.b2IntArray, i32 }
%struct.b2ShapeArray = type { ptr, i32, i32 }
%struct.b2ChainShapeArray = type { ptr, i32, i32 }
%struct.b2SensorArray = type { ptr, i32, i32 }
%struct.b2TaskContextArray = type { ptr, i32, i32 }
%struct.b2SensorTaskContextArray = type { ptr, i32, i32 }
%struct.b2BodyMoveEventArray = type { ptr, i32, i32 }
%struct.b2SensorBeginTouchEventArray = type { ptr, i32, i32 }
%struct.b2ContactBeginTouchEventArray = type { ptr, i32, i32 }
%struct.b2SensorEndTouchEventArray = type { ptr, i32, i32 }
%struct.b2ContactEndTouchEventArray = type { ptr, i32, i32 }
%struct.b2ContactHitEventArray = type { ptr, i32, i32 }
%struct.b2BitSet = type { ptr, i32, i32 }
%struct.b2Vec2 = type { float, float }
%struct.b2Profile = type { float, float, float, float, float, float, float, float, float, float, float, float, float, float, float, float, float, float, float, float, float, float }
%struct.b2Body = type { [32 x i8], ptr, i32, i32, i32, i32, i32, i32, i32, i32, i32, i32, i32, i32, float, float, float, float, i32, i32, i32, i16, i8, i8, i8, i8 }
%struct.b2BodyId = type { i32, i16, i16 }

@b2_worlds = hidden global [128 x %struct.b2World] zeroinitializer, align 16

; Function Attrs: nounwind uwtable
define zeroext i1 @b2Body_IsValid(i64 %0) #0 {
  %2 = alloca i1, align 1
  %3 = alloca %struct.b2BodyId, align 4
  %4 = alloca ptr, align 8
  %5 = alloca i32, align 4
  %6 = alloca ptr, align 8
  store i64 %0, ptr %3, align 4
  %7 = getelementptr inbounds nuw %struct.b2BodyId, ptr %3, i32 0, i32 1
  %8 = load i16, ptr %7, align 4, !tbaa !441
  %9 = zext i16 %8 to i32
  %10 = icmp slt i32 %9, 0
  br i1 %10, label %16, label %11

11:                                               ; preds = %1
  %12 = getelementptr inbounds nuw %struct.b2BodyId, ptr %3, i32 0, i32 1
  %13 = load i16, ptr %12, align 4, !tbaa !441
  %14 = zext i16 %13 to i32
  %15 = icmp sle i32 128, %14
  br i1 %15, label %16, label %17

16:                                               ; preds = %11, %1
  store i1 false, ptr %2, align 1
  br label %73

17:                                               ; preds = %11
  call void @llvm.lifetime.start.p0(i64 8, ptr %4) #10
  %18 = getelementptr inbounds nuw %struct.b2BodyId, ptr %3, i32 0, i32 1
  %19 = load i16, ptr %18, align 4, !tbaa !441
  %20 = zext i16 %19 to i32
  %21 = sext i32 %20 to i64
  %22 = getelementptr inbounds %struct.b2World, ptr @b2_worlds, i64 %21
  store ptr %22, ptr %4, align 8, !tbaa !47
  %23 = load ptr, ptr %4, align 8, !tbaa !47
  %24 = getelementptr inbounds nuw %struct.b2World, ptr %23, i32 0, i32 58
  %25 = load i16, ptr %24, align 4, !tbaa !126
  %26 = zext i16 %25 to i32
  %27 = getelementptr inbounds nuw %struct.b2BodyId, ptr %3, i32 0, i32 1
  %28 = load i16, ptr %27, align 4, !tbaa !441
  %29 = zext i16 %28 to i32
  %30 = icmp ne i32 %26, %29
  br i1 %30, label %31, label %32

31:                                               ; preds = %17
  store i1 false, ptr %2, align 1
  store i32 1, ptr %5, align 4
  br label %72

32:                                               ; preds = %17
  %33 = getelementptr inbounds nuw %struct.b2BodyId, ptr %3, i32 0, i32 0
  %34 = load i32, ptr %33, align 4, !tbaa !443
  %35 = icmp slt i32 %34, 1
  br i1 %35, label %44, label %36

36:                                               ; preds = %32
  %37 = load ptr, ptr %4, align 8, !tbaa !47
  %38 = getelementptr inbounds nuw %struct.b2World, ptr %37, i32 0, i32 4
  %39 = getelementptr inbounds nuw %struct.b2BodyArray, ptr %38, i32 0, i32 1
  %40 = load i32, ptr %39, align 8, !tbaa !351
  %41 = getelementptr inbounds nuw %struct.b2BodyId, ptr %3, i32 0, i32 0
  %42 = load i32, ptr %41, align 4, !tbaa !443
  %43 = icmp slt i32 %40, %42
  br i1 %43, label %44, label %45

44:                                               ; preds = %36, %32
  store i1 false, ptr %2, align 1
  store i32 1, ptr %5, align 4
  br label %72

45:                                               ; preds = %36
  call void @llvm.lifetime.start.p0(i64 8, ptr %6) #10
  %46 = load ptr, ptr %4, align 8, !tbaa !47
  %47 = getelementptr inbounds nuw %struct.b2World, ptr %46, i32 0, i32 4
  %48 = getelementptr inbounds nuw %struct.b2BodyArray, ptr %47, i32 0, i32 0
  %49 = load ptr, ptr %48, align 8, !tbaa !352
  %50 = getelementptr inbounds nuw %struct.b2BodyId, ptr %3, i32 0, i32 0
  %51 = load i32, ptr %50, align 4, !tbaa !443
  %52 = sub nsw i32 %51, 1
  %53 = sext i32 %52 to i64
  %54 = getelementptr inbounds %struct.b2Body, ptr %49, i64 %53
  store ptr %54, ptr %6, align 8, !tbaa !108
  %55 = load ptr, ptr %6, align 8, !tbaa !108
  %56 = getelementptr inbounds nuw %struct.b2Body, ptr %55, i32 0, i32 2
  %57 = load i32, ptr %56, align 8, !tbaa !322
  %58 = icmp eq i32 %57, -1
  br i1 %58, label %59, label %60

59:                                               ; preds = %45
  store i1 false, ptr %2, align 1
  store i32 1, ptr %5, align 4
  br label %71

60:                                               ; preds = %45
  %61 = load ptr, ptr %6, align 8, !tbaa !108
  %62 = getelementptr inbounds nuw %struct.b2Body, ptr %61, i32 0, i32 21
  %63 = load i16, ptr %62, align 4, !tbaa !444
  %64 = zext i16 %63 to i32
  %65 = getelementptr inbounds nuw %struct.b2BodyId, ptr %3, i32 0, i32 2
  %66 = load i16, ptr %65, align 2, !tbaa !445
  %67 = zext i16 %66 to i32
  %68 = icmp ne i32 %64, %67
  br i1 %68, label %69, label %70

69:                                               ; preds = %60
  store i1 false, ptr %2, align 1
  store i32 1, ptr %5, align 4
  br label %71

70:                                               ; preds = %60
  store i1 true, ptr %2, align 1
  store i32 1, ptr %5, align 4
  br label %71

71:                                               ; preds = %70, %69, %59
  call void @llvm.lifetime.end.p0(i64 8, ptr %6) #10
  br label %72

72:                                               ; preds = %71, %44, %31
  call void @llvm.lifetime.end.p0(i64 8, ptr %4) #10
  br label %73

73:                                               ; preds = %72, %16
  %74 = load i1, ptr %2, align 1
  ret i1 %74
}