; Function Attrs: mustprogress nofree norecurse nosync nounwind willreturn memory(read, inaccessiblemem: none) uwtable
define zeroext i1 @b2Body_IsValid(i64 %0) local_unnamed_addr #11 {
  %.sroa.0.0.extract.trunc = trunc i64 %0 to i32
  %.sroa.8.0.extract.shift = lshr i64 %0, 48
  %2 = and i64 %0, 280925220896768
  %.not15 = icmp eq i64 %2, 0
  br i1 %.not15, label %3, label %27

3:                                                ; preds = %1
  %.sroa.4.0.extract.shift = lshr i64 %0, 32
  %4 = and i64 %.sroa.4.0.extract.shift, 127
  %5 = getelementptr inbounds nuw %struct.b2World, ptr @b2_worlds, i64 %4
  %6 = getelementptr inbounds nuw i8, ptr %5, i64 1780
  %7 = load i16, ptr %6, align 4, !tbaa !83
  %8 = trunc i64 %.sroa.4.0.extract.shift to i16
  %.not = icmp ne i16 %7, %8
  %9 = icmp slt i32 %.sroa.0.0.extract.trunc, 1
  %or.cond = or i1 %9, %.not
  br i1 %or.cond, label %27, label %10

10:                                               ; preds = %3
  %11 = getelementptr inbounds nuw i8, ptr %5, i64 1040
  %12 = load i32, ptr %11, align 16, !tbaa !342
  %13 = icmp slt i32 %12, %.sroa.0.0.extract.trunc
  br i1 %13, label %27, label %14

14:                                               ; preds = %10
  %15 = getelementptr inbounds nuw i8, ptr %5, i64 1032
  %16 = load ptr, ptr %15, align 8, !tbaa !343
  %17 = add nuw nsw i64 %0, 4294967295
  %18 = and i64 %17, 4294967295
  %19 = getelementptr inbounds nuw %struct.b2Body, ptr %16, i64 %18
  %20 = getelementptr inbounds nuw i8, ptr %19, i64 40
  %21 = load i32, ptr %20, align 8, !tbaa !282
  %22 = icmp eq i32 %21, -1
  br i1 %22, label %27, label %23

23:                                               ; preds = %14
  %24 = getelementptr inbounds nuw i8, ptr %19, i64 116
  %25 = load i16, ptr %24, align 4, !tbaa !371
  %26 = zext i16 %25 to i64
  %.not16 = icmp eq i64 %.sroa.8.0.extract.shift, %26
  br label %27

27:                                               ; preds = %3, %10, %23, %14, %1
  %.0 = phi i1 [ false, %1 ], [ false, %3 ], [ false, %10 ], [ false, %14 ], [ %.not16, %23 ]
  ret i1 %.0
}